; Function Attrs: mustprogress nofree norecurse nosync nounwind willreturn memory(argmem: readwrite) uwtable
define void @_ZN6google8protobuf9BoolValue12InternalSwapEPS1_(ptr nocapture noundef nonnull align 8 dereferenceable(24) %this, ptr noalias nocapture noundef %other) local_unnamed_addr #10 align 2 {
entry:
  %_internal_metadata_ = getelementptr inbounds i8, ptr %this, i64 8
  %_internal_metadata_2 = getelementptr inbounds i8, ptr %other, i64 8
  %0 = load i64, ptr %_internal_metadata_, align 8
  %1 = load i64, ptr %_internal_metadata_2, align 8
  store i64 %1, ptr %_internal_metadata_, align 8
  store i64 %0, ptr %_internal_metadata_2, align 8
  %2 = getelementptr inbounds i8, ptr %this, i64 16
  %3 = getelementptr inbounds i8, ptr %other, i64 16
  %4 = load i8, ptr %2, align 8
  %5 = and i8 %4, 1
  %6 = load i8, ptr %3, align 1
  %7 = and i8 %6, 1
  store i8 %7, ptr %2, align 8
  store i8 %5, ptr %3, align 1
  ret void
}